; Function Attrs: nounwind uwtable
define internal noundef ptr @tuple_item(ptr noundef readonly captures(none) %0, i64 noundef %1) #0 {
  %3 = icmp slt i64 %1, 0
  br i1 %3, label %6, label %4

4:                                                ; preds = %2
  %5 = getelementptr i8, ptr %0, i64 16
  %.val = load i64, ptr %5, align 8, !tbaa !107
  %.not = icmp slt i64 %1, %.val
  br i1 %.not, label %8, label %6

6:                                                ; preds = %4, %2
  %7 = load ptr, ptr @PyExc_IndexError, align 8, !tbaa !25
  tail call void @PyErr_SetString(ptr noundef %7, ptr noundef nonnull @.str.1) #9
  br label %_Py_NewRef.exit

8:                                                ; preds = %4
  %9 = getelementptr inbounds nuw i8, ptr %0, i64 24
  %10 = getelementptr [1 x ptr], ptr %9, i64 0, i64 %1
  %11 = load ptr, ptr %10, align 8, !tbaa !25
  %12 = load i32, ptr %11, align 8, !tbaa !108
  %13 = icmp slt i32 %12, 0
  br i1 %13, label %_Py_NewRef.exit, label %14

14:                                               ; preds = %8
  %15 = add nuw i32 %12, 1
  store i32 %15, ptr %11, align 8, !tbaa !108
  br label %_Py_NewRef.exit

_Py_NewRef.exit:                                  ; preds = %14, %8, %6
  %.0 = phi ptr [ null, %6 ], [ %11, %8 ], [ %11, %14 ]
  ret ptr %.0
}